; Function Attrs: mustprogress uwtable
define hidden void @_ZNK2cv9SIFT_Impl15buildDoGPyramidERKSt6vectorINS_3MatESaIS2_EERS4_(ptr noundef nonnull readonly align 8 captures(none) dereferenceable(45) %0, ptr noundef nonnull align 8 dereferenceable(24) %1, ptr noundef nonnull align 8 dereferenceable(24) %2) local_unnamed_addr #8 align 2 personality ptr @__gxx_personality_v0 {
  %4 = alloca %"class.cv::utils::trace::details::Region", align 8
  %5 = alloca %"class.cv::Range", align 4
  %6 = alloca %"class.cv::buildDoGPyramidComputer", align 8
  call void @llvm.lifetime.start.p0(i64 16, ptr nonnull %4) #27
  call void @_ZN2cv5utils5trace7details6RegionC1ERKNS3_21LocationStaticStorageE(ptr noundef nonnull align 8 dereferenceable(12) %4, ptr noundef nonnull align 8 dereferenceable(32) @_ZZNK2cv9SIFT_Impl15buildDoGPyramidERKSt6vectorINS_3MatESaIS2_EERS4_E25__cv_trace_location_fn304)
  %7 = getelementptr inbounds nuw i8, ptr %1, i64 8
  %8 = load ptr, ptr %7, align 8, !tbaa !117
  %9 = load ptr, ptr %1, align 8, !tbaa !9
  %10 = ptrtoint ptr %8 to i64
  %11 = ptrtoint ptr %9 to i64
  %12 = sub i64 %10, %11
  %13 = sdiv exact i64 %12, 96
  %14 = trunc i64 %13 to i32
  %15 = getelementptr inbounds nuw i8, ptr %0, i64 12
  %16 = load i32, ptr %15, align 4, !tbaa !111
  %17 = add nsw i32 %16, 3
  %18 = sdiv i32 %14, %17
  %19 = add nsw i32 %16, 2
  %20 = mul nsw i32 %18, %19
  %21 = sext i32 %20 to i64
  %22 = getelementptr inbounds nuw i8, ptr %2, i64 8
  %23 = load ptr, ptr %22, align 8, !tbaa !117
  %24 = load ptr, ptr %2, align 8, !tbaa !9
  %25 = ptrtoint ptr %23 to i64
  %26 = ptrtoint ptr %24 to i64
  %27 = sub i64 %25, %26
  %28 = sdiv exact i64 %27, 96
  %29 = icmp ult i64 %28, %21
  br i1 %29, label %30, label %32

30:                                               ; preds = %3
  %31 = sub nuw nsw i64 %21, %28
  invoke void @_ZNSt6vectorIN2cv3MatESaIS1_EE17_M_default_appendEm(ptr noundef nonnull align 8 dereferenceable(24) %2, i64 noundef %31)
          to label %_ZNSt6vectorIN2cv3MatESaIS1_EE6resizeEm.exit unwind label %51

32:                                               ; preds = %3
  %33 = icmp ugt i64 %28, %21
  br i1 %33, label %34, label %_ZNSt6vectorIN2cv3MatESaIS1_EE6resizeEm.exit

34:                                               ; preds = %32
  %35 = getelementptr inbounds nuw %"class.cv::Mat", ptr %24, i64 %21
  %.not.i.i = icmp eq ptr %23, %35
  br i1 %.not.i.i, label %_ZNSt6vectorIN2cv3MatESaIS1_EE6resizeEm.exit, label %.lr.ph.i.i.i.i.i

.lr.ph.i.i.i.i.i:                                 ; preds = %34, %.lr.ph.i.i.i.i.i
  %.05.i.i.i.i.i = phi ptr [ %36, %.lr.ph.i.i.i.i.i ], [ %35, %34 ]
  call void @_ZN2cv3MatD1Ev(ptr noundef nonnull align 8 dereferenceable(96) %.05.i.i.i.i.i) #27
  %36 = getelementptr inbounds nuw i8, ptr %.05.i.i.i.i.i, i64 96
  %.not.i.i.i.i.i = icmp eq ptr %36, %23
  br i1 %.not.i.i.i.i.i, label %_ZSt8_DestroyIPN2cv3MatES1_EvT_S3_RSaIT0_E.exit.i.i, label %.lr.ph.i.i.i.i.i, !llvm.loop !118

_ZSt8_DestroyIPN2cv3MatES1_EvT_S3_RSaIT0_E.exit.i.i: ; preds = %.lr.ph.i.i.i.i.i
  store ptr %35, ptr %22, align 8, !tbaa !117
  br label %_ZNSt6vectorIN2cv3MatESaIS1_EE6resizeEm.exit

_ZNSt6vectorIN2cv3MatESaIS1_EE6resizeEm.exit:     ; preds = %_ZSt8_DestroyIPN2cv3MatES1_EvT_S3_RSaIT0_E.exit.i.i, %34, %32, %30
  call void @llvm.lifetime.start.p0(i64 8, ptr nonnull %5) #27
  %37 = load i32, ptr %15, align 4, !tbaa !111
  %38 = add nsw i32 %37, 2
  %39 = mul nsw i32 %38, %18
  store i32 0, ptr %5, align 4, !tbaa !3
  %40 = getelementptr inbounds nuw i8, ptr %5, i64 4
  store i32 %39, ptr %40, align 4, !tbaa !8
  call void @llvm.lifetime.start.p0(i64 32, ptr nonnull %6) #27
  store ptr getelementptr inbounds nuw inrange(-16, 24) (i8, ptr @_ZTVN2cv23buildDoGPyramidComputerE, i64 16), ptr %6, align 8, !tbaa !94
  %41 = getelementptr inbounds nuw i8, ptr %6, i64 8
  store i32 %37, ptr %41, align 8, !tbaa !129
  %42 = getelementptr inbounds nuw i8, ptr %6, i64 16
  store ptr %1, ptr %42, align 8, !tbaa !133
  %43 = getelementptr inbounds nuw i8, ptr %6, i64 24
  store ptr %2, ptr %43, align 8, !tbaa !133
  invoke void @_ZN2cv13parallel_for_ERKNS_5RangeERKNS_16ParallelLoopBodyEd(ptr noundef nonnull align 4 dereferenceable(8) %5, ptr noundef nonnull align 8 dereferenceable(8) %6, double noundef -1.000000e+00)
          to label %44 unwind label %53

44:                                               ; preds = %_ZNSt6vectorIN2cv3MatESaIS1_EE6resizeEm.exit
  call void @_ZN2cv16ParallelLoopBodyD2Ev(ptr noundef nonnull align 8 dereferenceable(32) %6) #27
  call void @llvm.lifetime.end.p0(i64 32, ptr nonnull %6) #27
  call void @llvm.lifetime.end.p0(i64 8, ptr nonnull %5) #27
  %45 = getelementptr inbounds nuw i8, ptr %4, i64 8
  %46 = load i32, ptr %45, align 8, !tbaa !13
  %.not.i = icmp eq i32 %46, 0
  br i1 %.not.i, label %_ZN2cv5utils5trace7details6RegionD2Ev.exit, label %47

47:                                               ; preds = %44
  invoke void @_ZN2cv5utils5trace7details6Region7destroyEv(ptr noundef nonnull align 8 dereferenceable(12) %4)
          to label %_ZN2cv5utils5trace7details6RegionD2Ev.exit unwind label %48

48:                                               ; preds = %47
  %49 = landingpad { ptr, i32 }
          catch ptr null
  %50 = extractvalue { ptr, i32 } %49, 0
  call void @__clang_call_terminate(ptr %50) #28
  unreachable

_ZN2cv5utils5trace7details6RegionD2Ev.exit:       ; preds = %44, %47
  call void @llvm.lifetime.end.p0(i64 16, ptr nonnull %4) #27
  ret void

51:                                               ; preds = %30
  %52 = landingpad { ptr, i32 }
          cleanup
  br label %55

53:                                               ; preds = %_ZNSt6vectorIN2cv3MatESaIS1_EE6resizeEm.exit
  %54 = landingpad { ptr, i32 }
          cleanup
  call void @_ZN2cv16ParallelLoopBodyD2Ev(ptr noundef nonnull align 8 dereferenceable(32) %6) #27
  call void @llvm.lifetime.end.p0(i64 32, ptr nonnull %6) #27
  call void @llvm.lifetime.end.p0(i64 8, ptr nonnull %5) #27
  br label %55

55:                                               ; preds = %53, %51
  %.pn = phi { ptr, i32 } [ %54, %53 ], [ %52, %51 ]
  call void @_ZN2cv5utils5trace7details6RegionD2Ev(ptr noundef nonnull align 8 dereferenceable(12) %4) #27
  call void @llvm.lifetime.end.p0(i64 16, ptr nonnull %4) #27
  resume { ptr, i32 } %.pn
}